target datalayout = "e-m:e-p270:32:32-p271:32:32-p272:64:64-i64:64-i128:128-f80:128-n8:16:32:64-S128"
target triple = "x86_64-pc-linux-gnu"

%"class.std::shared_ptr" = type { %"class.std::__shared_ptr" }
%"class.std::__shared_ptr" = type { ptr, %"class.std::__shared_count" }
%"class.std::__shared_count" = type { ptr }
%"class.OpenColorIO_v2_5dev::GradingRGBCurveTransformImpl" = type { %"class.OpenColorIO_v2_5dev::GradingRGBCurveTransform", %"class.OpenColorIO_v2_5dev::GradingRGBCurveOpData" }
%"class.OpenColorIO_v2_5dev::GradingRGBCurveTransform" = type { %"class.OpenColorIO_v2_5dev::Transform" }
%"class.OpenColorIO_v2_5dev::Transform" = type { ptr }
%"class.OpenColorIO_v2_5dev::GradingRGBCurveOpData" = type { %"class.OpenColorIO_v2_5dev::OpData", i32, %"class.std::shared_ptr.8", i8, i32 }
%"class.OpenColorIO_v2_5dev::OpData" = type { ptr, %"class.std::mutex", %"class.OpenColorIO_v2_5dev::FormatMetadataImpl" }
%"class.std::mutex" = type { %"class.std::__mutex_base" }
%"class.std::__mutex_base" = type { %union.pthread_mutex_t }
%union.pthread_mutex_t = type { %struct.__pthread_mutex_s }
%struct.__pthread_mutex_s = type { i32, i32, i32, i32, i32, i16, i16, %struct.__pthread_internal_list }
%struct.__pthread_internal_list = type { ptr, ptr }
%"class.OpenColorIO_v2_5dev::FormatMetadataImpl" = type { %"class.OpenColorIO_v2_5dev::FormatMetadata", %"class.std::__cxx11::basic_string", %"class.std::__cxx11::basic_string", %"class.std::vector", %"class.std::vector.3" }
%"class.OpenColorIO_v2_5dev::FormatMetadata" = type { ptr }
%"class.std::__cxx11::basic_string" = type { %"struct.std::__cxx11::basic_string<char>::_Alloc_hider", i64, %union.anon }
%"struct.std::__cxx11::basic_string<char>::_Alloc_hider" = type { ptr }
%union.anon = type { i64, [8 x i8] }
%"class.std::vector" = type { %"struct.std::_Vector_base" }
%"struct.std::_Vector_base" = type { %"struct.std::_Vector_base<std::pair<std::__cxx11::basic_string<char>, std::__cxx11::basic_string<char>>, std::allocator<std::pair<std::__cxx11::basic_string<char>, std::__cxx11::basic_string<char>>>>::_Vector_impl" }
%"struct.std::_Vector_base<std::pair<std::__cxx11::basic_string<char>, std::__cxx11::basic_string<char>>, std::allocator<std::pair<std::__cxx11::basic_string<char>, std::__cxx11::basic_string<char>>>>::_Vector_impl" = type { %"struct.std::_Vector_base<std::pair<std::__cxx11::basic_string<char>, std::__cxx11::basic_string<char>>, std::allocator<std::pair<std::__cxx11::basic_string<char>, std::__cxx11::basic_string<char>>>>::_Vector_impl_data" }
%"struct.std::_Vector_base<std::pair<std::__cxx11::basic_string<char>, std::__cxx11::basic_string<char>>, std::allocator<std::pair<std::__cxx11::basic_string<char>, std::__cxx11::basic_string<char>>>>::_Vector_impl_data" = type { ptr, ptr, ptr }
%"class.std::vector.3" = type { %"struct.std::_Vector_base.4" }
%"struct.std::_Vector_base.4" = type { %"struct.std::_Vector_base<OpenColorIO_v2_5dev::FormatMetadataImpl, std::allocator<OpenColorIO_v2_5dev::FormatMetadataImpl>>::_Vector_impl" }
%"struct.std::_Vector_base<OpenColorIO_v2_5dev::FormatMetadataImpl, std::allocator<OpenColorIO_v2_5dev::FormatMetadataImpl>>::_Vector_impl" = type { %"struct.std::_Vector_base<OpenColorIO_v2_5dev::FormatMetadataImpl, std::allocator<OpenColorIO_v2_5dev::FormatMetadataImpl>>::_Vector_impl_data" }
%"struct.std::_Vector_base<OpenColorIO_v2_5dev::FormatMetadataImpl, std::allocator<OpenColorIO_v2_5dev::FormatMetadataImpl>>::_Vector_impl_data" = type { ptr, ptr, ptr }
%"class.std::shared_ptr.8" = type { %"class.std::__shared_ptr.9" }
%"class.std::__shared_ptr.9" = type { ptr, %"class.std::__shared_count" }
%"class.std::shared_ptr.11" = type { %"class.std::__shared_ptr.12" }
%"class.std::__shared_ptr.12" = type { ptr, %"class.std::__shared_count" }

; Function Attrs: mustprogress nounwind uwtable
define linkonce_odr hidden void @_ZNSt14__shared_countILN9__gnu_cxx12_Lock_policyE2EE7_M_swapERS2_(ptr noundef nonnull align 8 dereferenceable(8) %0, ptr noundef nonnull align 8 dereferenceable(8) %1) #3 comdat align 2 {
  %3 = alloca ptr, align 8
  %4 = alloca ptr, align 8
  %5 = alloca ptr, align 8
  store ptr %0, ptr %3, align 8, !tbaa !107
  store ptr %1, ptr %4, align 8, !tbaa !107
  %6 = load ptr, ptr %3, align 8
  call void @llvm.lifetime.start.p0(i64 8, ptr %5) #21
  %7 = load ptr, ptr %4, align 8, !tbaa !107
  %8 = getelementptr inbounds nuw %"class.std::__shared_count", ptr %7, i32 0, i32 0
  %9 = load ptr, ptr %8, align 8, !tbaa !109
  store ptr %9, ptr %5, align 8, !tbaa !110
  %10 = getelementptr inbounds nuw %"class.std::__shared_count", ptr %6, i32 0, i32 0
  %11 = load ptr, ptr %10, align 8, !tbaa !109
  %12 = load ptr, ptr %4, align 8, !tbaa !107
  %13 = getelementptr inbounds nuw %"class.std::__shared_count", ptr %12, i32 0, i32 0
  store ptr %11, ptr %13, align 8, !tbaa !109
  %14 = load ptr, ptr %5, align 8, !tbaa !110
  %15 = getelementptr inbounds nuw %"class.std::__shared_count", ptr %6, i32 0, i32 0
  store ptr %14, ptr %15, align 8, !tbaa !109
  call void @llvm.lifetime.end.p0(i64 8, ptr %5) #21
  ret void
}

; Function Attrs: mustprogress nounwind uwtable
define linkonce_odr hidden void @_ZNSt14__shared_countILN9__gnu_cxx12_Lock_policyE2EEC2Ev(ptr noundef nonnull align 8 dereferenceable(8) %0) unnamed_addr #3 comdat align 2 {
  %2 = alloca ptr, align 8
  store ptr %0, ptr %2, align 8, !tbaa !107
  %3 = load ptr, ptr %2, align 8
  %4 = getelementptr inbounds nuw %"class.std::__shared_count", ptr %3, i32 0, i32 0
  store ptr null, ptr %4, align 8, !tbaa !109
  ret void
}

; Function Attrs: mustprogress nounwind uwtable
define linkonce_odr hidden void @_ZNSt12__shared_ptrIN19OpenColorIO_v2_5dev9TransformELN9__gnu_cxx12_Lock_policyE2EEC2INS0_24GradingRGBCurveTransformEvEEOS_IT_LS3_2EE(ptr noundef nonnull align 8 dereferenceable(16) %0, ptr noundef nonnull align 8 dereferenceable(16) %1) unnamed_addr #3 comdat align 2 {
  %3 = alloca ptr, align 8
  %4 = alloca ptr, align 8
  store ptr %0, ptr %3, align 8, !tbaa !165
  store ptr %1, ptr %4, align 8, !tbaa !17
  %5 = load ptr, ptr %3, align 8
  %6 = getelementptr inbounds nuw %"class.std::__shared_ptr.12", ptr %5, i32 0, i32 0
  %7 = load ptr, ptr %4, align 8, !tbaa !17
  %8 = getelementptr inbounds nuw %"class.std::__shared_ptr", ptr %7, i32 0, i32 0
  %9 = load ptr, ptr %8, align 8, !tbaa !19
  store ptr %9, ptr %6, align 8, !tbaa !167
  %10 = getelementptr inbounds nuw %"class.std::__shared_ptr.12", ptr %5, i32 0, i32 1
  call void @_ZNSt14__shared_countILN9__gnu_cxx12_Lock_policyE2EEC2Ev(ptr noundef nonnull align 8 dereferenceable(8) %10) #21
  %11 = getelementptr inbounds nuw %"class.std::__shared_ptr.12", ptr %5, i32 0, i32 1
  %12 = load ptr, ptr %4, align 8, !tbaa !17
  %13 = getelementptr inbounds nuw %"class.std::__shared_ptr", ptr %12, i32 0, i32 1
  call void @_ZNSt14__shared_countILN9__gnu_cxx12_Lock_policyE2EE7_M_swapERS2_(ptr noundef nonnull align 8 dereferenceable(8) %11, ptr noundef nonnull align 8 dereferenceable(8) %13) #21
  %14 = load ptr, ptr %4, align 8, !tbaa !17
  %15 = getelementptr inbounds nuw %"class.std::__shared_ptr", ptr %14, i32 0, i32 0
  store ptr null, ptr %15, align 8, !tbaa !19
  ret void
}

; Function Attrs: mustprogress nounwind uwtable
define linkonce_odr hidden void @_ZNSt10shared_ptrIN19OpenColorIO_v2_5dev9TransformEEC2INS0_24GradingRGBCurveTransformEvEEOS_IT_E(ptr noundef nonnull align 8 dereferenceable(16) %0, ptr noundef nonnull align 8 dereferenceable(16) %1) unnamed_addr #3 comdat align 2 {
  %3 = alloca ptr, align 8
  %4 = alloca ptr, align 8
  store ptr %0, ptr %3, align 8, !tbaa !23
  store ptr %1, ptr %4, align 8, !tbaa !12
  %5 = load ptr, ptr %3, align 8
  %6 = load ptr, ptr %4, align 8, !tbaa !12
  call void @_ZNSt12__shared_ptrIN19OpenColorIO_v2_5dev9TransformELN9__gnu_cxx12_Lock_policyE2EEC2INS0_24GradingRGBCurveTransformEvEEOS_IT_LS3_2EE(ptr noundef nonnull align 8 dereferenceable(16) %5, ptr noundef nonnull align 8 dereferenceable(16) %6) #21
  ret void
}

; Function Attrs: mustprogress nounwind uwtable
define linkonce_odr hidden noundef nonnull align 8 dereferenceable(200) ptr @_ZN19OpenColorIO_v2_5dev28GradingRGBCurveTransformImpl4dataEv(ptr noundef nonnull align 8 dereferenceable(208) %0) #3 comdat align 2 {
  %2 = alloca ptr, align 8
  store ptr %0, ptr %2, align 8, !tbaa !14
  %3 = load ptr, ptr %2, align 8
  %4 = getelementptr inbounds nuw %"class.OpenColorIO_v2_5dev::GradingRGBCurveTransformImpl", ptr %3, i32 0, i32 1
  ret ptr %4
}

; Function Attrs: mustprogress nounwind uwtable
define linkonce_odr hidden noundef ptr @_ZNKSt12__shared_ptrIN19OpenColorIO_v2_5dev24GradingRGBCurveTransformELN9__gnu_cxx12_Lock_policyE2EE3getEv(ptr noundef nonnull align 8 dereferenceable(16) %0) #3 comdat align 2 {
  %2 = alloca ptr, align 8
  store ptr %0, ptr %2, align 8, !tbaa !17
  %3 = load ptr, ptr %2, align 8
  %4 = getelementptr inbounds nuw %"class.std::__shared_ptr", ptr %3, i32 0, i32 0
  %5 = load ptr, ptr %4, align 8, !tbaa !19
  ret ptr %5
}

; Function Attrs: mustprogress nounwind uwtable
define linkonce_odr hidden noundef nonnull align 8 dereferenceable(200) ptr @_ZNK19OpenColorIO_v2_5dev28GradingRGBCurveTransformImpl4dataEv(ptr noundef nonnull align 8 dereferenceable(208) %0) #3 comdat align 2 {
  %2 = alloca ptr, align 8
  store ptr %0, ptr %2, align 8, !tbaa !14
  %3 = load ptr, ptr %2, align 8
  %4 = getelementptr inbounds nuw %"class.OpenColorIO_v2_5dev::GradingRGBCurveTransformImpl", ptr %3, i32 0, i32 1
  ret ptr %4
}

; Function Attrs: mustprogress uwtable
define hidden void @_ZNK19OpenColorIO_v2_5dev28GradingRGBCurveTransformImpl18createEditableCopyEv(ptr dead_on_unwind noalias writable sret(%"class.std::shared_ptr.11") align 8 %0, ptr noundef nonnull align 8 dereferenceable(208) %1) unnamed_addr #0 align 2 personality ptr @__gxx_personality_v0 {
  %3 = alloca ptr, align 8
  %4 = alloca ptr, align 8
  %5 = alloca %"class.std::shared_ptr", align 8
  %6 = alloca ptr, align 8
  %7 = alloca i32, align 4
  store ptr %0, ptr %3, align 8
  store ptr %1, ptr %4, align 8, !tbaa !14
  %8 = load ptr, ptr %4, align 8
  call void @llvm.lifetime.start.p0(i64 16, ptr %5) #21
  %9 = load ptr, ptr %8, align 8, !tbaa !10
  %10 = getelementptr inbounds ptr, ptr %9, i64 10
  %11 = load ptr, ptr %10, align 8
  %12 = call noundef i32 %11(ptr noundef nonnull align 8 dereferenceable(208) %8) #21
  call void @_ZN19OpenColorIO_v2_5dev24GradingRGBCurveTransform6CreateENS_12GradingStyleE(ptr dead_on_unwind writable sret(%"class.std::shared_ptr") align 8 %5, i32 noundef %12)
  %13 = call noundef nonnull align 8 dereferenceable(200) ptr @_ZNK19OpenColorIO_v2_5dev28GradingRGBCurveTransformImpl4dataEv(ptr noundef nonnull align 8 dereferenceable(208) %8) #21
  %14 = call noundef ptr @_ZNKSt12__shared_ptrIN19OpenColorIO_v2_5dev24GradingRGBCurveTransformELN9__gnu_cxx12_Lock_policyE2EE3getEv(ptr noundef nonnull align 8 dereferenceable(16) %5) #21
  %15 = icmp eq ptr %14, null
  br i1 %15, label %18, label %16

16:                                               ; preds = %2
  %17 = call ptr @__dynamic_cast(ptr %14, ptr @_ZTIN19OpenColorIO_v2_5dev24GradingRGBCurveTransformE, ptr @_ZTIN19OpenColorIO_v2_5dev28GradingRGBCurveTransformImplE, i64 0) #21
  br label %19

18:                                               ; preds = %2
  br label %19

19:                                               ; preds = %18, %16
  %20 = phi ptr [ %17, %16 ], [ null, %18 ]
  %21 = call noundef nonnull align 8 dereferenceable(200) ptr @_ZN19OpenColorIO_v2_5dev28GradingRGBCurveTransformImpl4dataEv(ptr noundef nonnull align 8 dereferenceable(208) %20) #21
  %22 = invoke noundef nonnull align 8 dereferenceable(200) ptr @_ZN19OpenColorIO_v2_5dev21GradingRGBCurveOpDataaSERKS0_(ptr noundef nonnull align 8 dereferenceable(200) %21, ptr noundef nonnull align 8 dereferenceable(200) %13)
          to label %23 unwind label %24

23:                                               ; preds = %19
  call void @_ZNSt10shared_ptrIN19OpenColorIO_v2_5dev9TransformEEC2INS0_24GradingRGBCurveTransformEvEEOS_IT_E(ptr noundef nonnull align 8 dereferenceable(16) %0, ptr noundef nonnull align 8 dereferenceable(16) %5) #21
  call void @_ZNSt12__shared_ptrIN19OpenColorIO_v2_5dev24GradingRGBCurveTransformELN9__gnu_cxx12_Lock_policyE2EED2Ev(ptr noundef nonnull align 8 dereferenceable(16) %5) #21
  call void @llvm.lifetime.end.p0(i64 16, ptr %5) #21
  ret void

24:                                               ; preds = %19
  %25 = landingpad { ptr, i32 }
          cleanup
  %26 = extractvalue { ptr, i32 } %25, 0
  store ptr %26, ptr %6, align 8
  %27 = extractvalue { ptr, i32 } %25, 1
  store i32 %27, ptr %7, align 4
  call void @_ZNSt12__shared_ptrIN19OpenColorIO_v2_5dev24GradingRGBCurveTransformELN9__gnu_cxx12_Lock_policyE2EED2Ev(ptr noundef nonnull align 8 dereferenceable(16) %5) #21
  call void @llvm.lifetime.end.p0(i64 16, ptr %5) #21
  br label %28

28:                                               ; preds = %24
  %29 = load ptr, ptr %6, align 8
  %30 = load i32, ptr %7, align 4
  %31 = insertvalue { ptr, i32 } poison, ptr %29, 0
  %32 = insertvalue { ptr, i32 } %31, i32 %30, 1
  resume { ptr, i32 } %32
}