; Function Attrs: mustprogress uwtable
define hidden void @_ZNK19OpenColorIO_v2_5dev28GradingRGBCurveTransformImpl18createEditableCopyEv(ptr dead_on_unwind noalias writable writeonly sret(%"class.std::shared_ptr.11") align 8 captures(none) %0, ptr noundef nonnull align 8 dereferenceable(208) %1) unnamed_addr #0 align 2 personality ptr @__gxx_personality_v0 {
  %3 = alloca %"class.std::shared_ptr", align 8
  call void @llvm.lifetime.start.p0(i64 16, ptr nonnull %3) #20
  %4 = load ptr, ptr %1, align 8, !tbaa !3
  %5 = getelementptr inbounds nuw i8, ptr %4, i64 80
  %6 = load ptr, ptr %5, align 8
  %7 = tail call noundef i32 %6(ptr noundef nonnull align 8 dereferenceable(208) %1) #20
  call void @_ZN19OpenColorIO_v2_5dev24GradingRGBCurveTransform6CreateENS_12GradingStyleE(ptr dead_on_unwind nonnull writable sret(%"class.std::shared_ptr") align 8 %3, i32 noundef %7)
  %8 = getelementptr inbounds nuw i8, ptr %1, i64 8
  %9 = load ptr, ptr %3, align 8, !tbaa !6, !nonnull !23, !noundef !23
  %10 = tail call ptr @__dynamic_cast(ptr nonnull %9, ptr nonnull @_ZTIN19OpenColorIO_v2_5dev24GradingRGBCurveTransformE, ptr nonnull @_ZTIN19OpenColorIO_v2_5dev28GradingRGBCurveTransformImplE, i64 0) #20
  %11 = getelementptr inbounds nuw i8, ptr %10, i64 8
  %12 = invoke noundef nonnull align 8 dereferenceable(200) ptr @_ZN19OpenColorIO_v2_5dev21GradingRGBCurveOpDataaSERKS0_(ptr noundef nonnull align 8 dereferenceable(200) %11, ptr noundef nonnull align 8 dereferenceable(200) %8)
          to label %_ZNSt12__shared_ptrIN19OpenColorIO_v2_5dev24GradingRGBCurveTransformELN9__gnu_cxx12_Lock_policyE2EED2Ev.exit unwind label %16

_ZNSt12__shared_ptrIN19OpenColorIO_v2_5dev24GradingRGBCurveTransformELN9__gnu_cxx12_Lock_policyE2EED2Ev.exit: ; preds = %2
  store ptr %9, ptr %0, align 8, !tbaa !24
  %13 = getelementptr inbounds nuw i8, ptr %0, i64 8
  %14 = getelementptr inbounds nuw i8, ptr %3, i64 8
  %15 = load ptr, ptr %14, align 8, !tbaa !13
  store ptr %15, ptr %13, align 8, !tbaa !13
  call void @llvm.lifetime.end.p0(i64 16, ptr nonnull %3) #20
  ret void

16:                                               ; preds = %2
  %17 = landingpad { ptr, i32 }
          cleanup
  call void @_ZNSt12__shared_ptrIN19OpenColorIO_v2_5dev24GradingRGBCurveTransformELN9__gnu_cxx12_Lock_policyE2EED2Ev(ptr noundef nonnull align 8 dereferenceable(16) %3) #20
  call void @llvm.lifetime.end.p0(i64 16, ptr nonnull %3) #20
  resume { ptr, i32 } %17
}